target datalayout = "e-m:e-p270:32:32-p271:32:32-p272:64:64-i64:64-i128:128-f80:128-n8:16:32:64-S128"
target triple = "x86_64-pc-linux-gnu"

@TextToSnake.buffer = internal global [1024 x i8] zeroinitializer, align 16

; Function Attrs: nounwind uwtable
define ptr @TextToSnake(ptr noundef %0) #0 {
  %2 = alloca ptr, align 8
  %3 = alloca i32, align 4
  %4 = alloca i32, align 4
  store ptr %0, ptr %2, align 8
  call void @llvm.memset.p0.i64(ptr align 16 @TextToSnake.buffer, i8 0, i64 1024, i1 false)
  %5 = load ptr, ptr %2, align 8
  %6 = icmp ne ptr %5, null
  br i1 %6, label %7, label %75

7:                                                ; preds = %1
  call void @llvm.lifetime.start.p0(i64 4, ptr %3) #13
  store i32 0, ptr %3, align 4
  call void @llvm.lifetime.start.p0(i64 4, ptr %4) #13
  store i32 0, ptr %4, align 4
  br label %8

8:                                                ; preds = %69, %7
  %9 = load i32, ptr %3, align 4
  %10 = icmp slt i32 %9, 1023
  br i1 %10, label %11, label %19

11:                                               ; preds = %8
  %12 = load ptr, ptr %2, align 8
  %13 = load i32, ptr %4, align 4
  %14 = sext i32 %13 to i64
  %15 = getelementptr inbounds i8, ptr %12, i64 %14
  %16 = load i8, ptr %15, align 1
  %17 = sext i8 %16 to i32
  %18 = icmp ne i32 %17, 0
  br label %19

19:                                               ; preds = %11, %8
  %20 = phi i1 [ false, %8 ], [ %18, %11 ]
  br i1 %20, label %22, label %21

21:                                               ; preds = %19
  call void @llvm.lifetime.end.p0(i64 4, ptr %4) #13
  call void @llvm.lifetime.end.p0(i64 4, ptr %3) #13
  br label %74

22:                                               ; preds = %19
  %23 = load ptr, ptr %2, align 8
  %24 = load i32, ptr %4, align 4
  %25 = sext i32 %24 to i64
  %26 = getelementptr inbounds i8, ptr %23, i64 %25
  %27 = load i8, ptr %26, align 1
  %28 = sext i8 %27 to i32
  %29 = icmp sge i32 %28, 65
  br i1 %29, label %30, label %59

30:                                               ; preds = %22
  %31 = load ptr, ptr %2, align 8
  %32 = load i32, ptr %4, align 4
  %33 = sext i32 %32 to i64
  %34 = getelementptr inbounds i8, ptr %31, i64 %33
  %35 = load i8, ptr %34, align 1
  %36 = sext i8 %35 to i32
  %37 = icmp sle i32 %36, 90
  br i1 %37, label %38, label %59

38:                                               ; preds = %30
  %39 = load i32, ptr %3, align 4
  %40 = icmp sge i32 %39, 1
  br i1 %40, label %41, label %47

41:                                               ; preds = %38
  %42 = load i32, ptr %3, align 4
  %43 = sext i32 %42 to i64
  %44 = getelementptr inbounds [1024 x i8], ptr @TextToSnake.buffer, i64 0, i64 %43
  store i8 95, ptr %44, align 1
  %45 = load i32, ptr %3, align 4
  %46 = add nsw i32 %45, 1
  store i32 %46, ptr %3, align 4
  br label %47

47:                                               ; preds = %41, %38
  %48 = load ptr, ptr %2, align 8
  %49 = load i32, ptr %4, align 4
  %50 = sext i32 %49 to i64
  %51 = getelementptr inbounds i8, ptr %48, i64 %50
  %52 = load i8, ptr %51, align 1
  %53 = sext i8 %52 to i32
  %54 = add nsw i32 %53, 32
  %55 = trunc i32 %54 to i8
  %56 = load i32, ptr %3, align 4
  %57 = sext i32 %56 to i64
  %58 = getelementptr inbounds [1024 x i8], ptr @TextToSnake.buffer, i64 0, i64 %57
  store i8 %55, ptr %58, align 1
  br label %68

59:                                               ; preds = %30, %22
  %60 = load ptr, ptr %2, align 8
  %61 = load i32, ptr %4, align 4
  %62 = sext i32 %61 to i64
  %63 = getelementptr inbounds i8, ptr %60, i64 %62
  %64 = load i8, ptr %63, align 1
  %65 = load i32, ptr %3, align 4
  %66 = sext i32 %65 to i64
  %67 = getelementptr inbounds [1024 x i8], ptr @TextToSnake.buffer, i64 0, i64 %66
  store i8 %64, ptr %67, align 1
  br label %68

68:                                               ; preds = %59, %47
  br label %69

69:                                               ; preds = %68
  %70 = load i32, ptr %3, align 4
  %71 = add nsw i32 %70, 1
  store i32 %71, ptr %3, align 4
  %72 = load i32, ptr %4, align 4
  %73 = add nsw i32 %72, 1
  store i32 %73, ptr %4, align 4
  br label %8

74:                                               ; preds = %21
  br label %75

75:                                               ; preds = %74, %1
  ret ptr @TextToSnake.buffer
}