; Function Attrs: nofree norecurse nosync nounwind memory(write, argmem: read, inaccessiblemem: none) uwtable
define noundef nonnull ptr @TextToSnake(ptr noundef readonly captures(address_is_null) %0) local_unnamed_addr #16 {
  tail call void @llvm.memset.p0.i64(ptr noundef nonnull align 16 dereferenceable(1024) @TextToSnake.buffer, i8 0, i64 1024, i1 false)
  %.not = icmp eq ptr %0, null
  br i1 %.not, label %.critedge, label %.preheader

.preheader:                                       ; preds = %1, %15
  %indvars.iv = phi i64 [ %indvars.iv.next, %15 ], [ 0, %1 ]
  %.01822 = phi i32 [ %18, %15 ], [ 0, %1 ]
  %2 = getelementptr inbounds nuw i8, ptr %0, i64 %indvars.iv
  %3 = load i8, ptr %2, align 1
  %.not21 = icmp eq i8 %3, 0
  br i1 %.not21, label %.critedge, label %4

4:                                                ; preds = %.preheader
  %5 = add i8 %3, -65
  %or.cond = icmp ult i8 %5, 26
  br i1 %or.cond, label %6, label %15

6:                                                ; preds = %4
  %7 = icmp sgt i32 %.01822, 0
  br i1 %7, label %8, label %12

8:                                                ; preds = %6
  %9 = zext nneg i32 %.01822 to i64
  %10 = getelementptr inbounds nuw [1024 x i8], ptr @TextToSnake.buffer, i64 0, i64 %9
  store i8 95, ptr %10, align 1
  %11 = add nuw nsw i32 %.01822, 1
  %.pre = load i8, ptr %2, align 1
  br label %12

12:                                               ; preds = %8, %6
  %13 = phi i8 [ %.pre, %8 ], [ %3, %6 ]
  %.1 = phi i32 [ %11, %8 ], [ %.01822, %6 ]
  %14 = add i8 %13, 32
  br label %15

15:                                               ; preds = %4, %12
  %.1.sink = phi i32 [ %.1, %12 ], [ %.01822, %4 ]
  %.sink = phi i8 [ %14, %12 ], [ %3, %4 ]
  %16 = sext i32 %.1.sink to i64
  %17 = getelementptr inbounds [1024 x i8], ptr @TextToSnake.buffer, i64 0, i64 %16
  store i8 %.sink, ptr %17, align 1
  %18 = add nsw i32 %.1.sink, 1
  %indvars.iv.next = add nuw nsw i64 %indvars.iv, 1
  %19 = icmp slt i32 %.1.sink, 1022
  br i1 %19, label %.preheader, label %.critedge

.critedge:                                        ; preds = %.preheader, %15, %1
  ret ptr @TextToSnake.buffer
}